Certificate:
    Data:
        Version: 3 (0x2)
        Serial Number: 1 (0x1)
        Signature Algorithm: sha256WithRSAEncryption
        Issuer: C=BH, ST=BiH, L=Banja Luka, O=ETFBL, OU=ETFBL, CN=ETFBL/emailAddress=palavestraCA@mail.com
        Validity
            Not Before: Aug  8 17:30:30 2020 GMT
            Not After : Aug  8 17:30:30 2021 GMT
        Subject: C=BH, ST=BiH, O=ETFBL, OU=ETFBL, CN=ETFBL/emailAddress=djordjepalavestra@mail.com
        Subject Public Key Info:
            Public Key Algorithm: rsaEncryption
                RSA Public-Key: (2048 bit)
                Modulus:
                    00:d6:8c:30:0a:8c:7a:ab:0f:76:cd:d3:02:8b:9b:
                    2d:90:1c:33:61:91:0e:c1:32:2e:6f:a7:00:09:0e:
                    0d:f4:9a:c4:77:3e:aa:cd:d4:fb:9a:57:a6:84:51:
                    5e:1c:59:1f:ef:f4:6e:ed:07:95:59:21:ef:21:ee:
                    32:fd:d3:4a:83:65:62:66:2b:58:e6:2f:ba:db:b7:
                    62:75:f9:dc:5a:0d:1e:69:e3:00:33:12:f3:45:05:
                    e6:32:60:de:7a:b5:da:2e:f4:6e:f2:85:7b:8f:d3:
                    3e:8a:48:31:18:6c:21:9c:4c:43:5c:54:07:e6:59:
                    d0:5c:8b:73:ef:2d:ad:79:43:0a:56:ed:50:3d:79:
                    57:34:65:8f:c6:5d:a7:3d:43:9c:84:23:fe:9e:86:
                    8e:32:7f:1f:4d:81:ae:a6:dd:88:61:b7:7a:7e:02:
                    51:4a:a9:04:f7:74:8e:cb:cc:74:63:cf:7f:32:2d:
                    25:77:7e:c1:42:70:8e:41:83:0c:07:28:83:cb:fd:
                    3a:fe:46:35:25:a8:0a:e1:dd:8a:29:7f:09:27:32:
                    7e:ec:53:59:f9:38:97:d2:87:b9:9d:4f:af:77:8b:
                    a0:7b:99:96:d7:8c:21:6d:f7:53:64:ed:95:b9:06:
                    2c:0d:48:49:37:be:4d:57:49:e4:3f:72:c2:51:44:
                    59:99
                Exponent: 65537 (0x10001)
        X509v3 extensions:
            X509v3 Basic Constraints: 
                CA:FALSE
            Netscape Comment: 
                OpenSSL Generated Certificate
            X509v3 Subject Key Identifier: 
                AC:65:E8:7F:2A:AC:4D:60:B7:E7:E3:82:31:6C:30:E9:B1:7F:5F:6E
            X509v3 Authority Key Identifier: 
                keyid:8B:43:18:EC:1C:2C:E5:06:67:96:B9:CA:04:08:87:8F:B2:D7:8C:74

    Signature Algorithm: sha256WithRSAEncryption
         7c:bf:60:ec:80:d9:7a:72:90:20:aa:16:f8:be:39:1b:17:40:
         70:a0:22:71:b6:cb:b8:5a:4c:51:a8:51:80:18:e5:65:bf:32:
         7b:2a:bb:6b:30:a9:53:3f:e9:49:3e:99:14:dd:65:ca:32:8f:
         61:55:00:3b:1f:bb:a9:0e:71:c9:e6:44:e8:41:5b:7e:ba:99:
         70:94:4a:a6:62:99:76:46:10:b8:88:24:35:15:0c:d5:7f:dc:
         fb:20:8a:de:47:f0:e6:44:86:4f:8e:22:07:85:ce:b8:0d:a5:
         2e:1a:2d:e1:17:93:c4:44:40:3c:bb:54:0d:51:b6:91:e4:a6:
         d4:9e:83:a3:78:87:85:f3:12:7c:96:33:98:cd:bc:96:a1:c2:
         83:73:9b:27:18:84:0a:d5:92:7a:9f:3b:d6:bb:1f:65:3e:e3:
         ef:b0:9c:46:f2:a9:74:3a:b3:55:96:91:19:37:ba:9f:e6:8f:
         43:eb:18:11:87:43:9e:2e:17:84:2f:18:bc:96:df:f6:cd:fd:
         41:8b:02:54:4c:08:8f:1c:2d:9d:b4:3e:c4:9a:34:8a:50:e4:
         3e:8e:6e:6c:cc:b5:7d:76:b3:81:c5:02:59:43:16:60:6d:47:
         72:ff:79:17:3d:c1:45:1c:f2:53:fa:f4:19:b8:6c:b4:14:57:
         05:a7:07:f7:1a:bb:8f:8f:f5:49:06:9a:2a:4e:71:23:d5:43:
         a6:92:e1:89:07:a3:62:ab:73:79:46:cf:95:13:ab:23:33:dc:
         92:7a:88:02:3a:59:43:1f:08:26:fc:fa:5d:75:d1:a6:67:15:
         de:b2:4d:bb:43:54:ae:c3:8e:aa:74:3e:82:6e:a2:d3:d1:87:
         f5:4b:54:0e:63:d9:88:cf:06:55:f1:32:91:1a:91:04:93:e1:
         72:86:c9:18:d1:6d:39:2c:f6:16:96:ee:b8:c9:94:c6:44:06:
         16:e0:e3:19:e5:af:22:5f:eb:56:0f:ac:97:44:47:f9:3d:47:
         79:78:c9:2c:e8:69:fb:2d:04:e9:ef:50:14:2b:f1:a1:b3:96:
         9f:43:be:9d:37:90:b3:25:b4:85:74:af:eb:96:41:6a:b5:7c:
         76:a3:f1:5c:fc:85:0c:95:96:12:57:06:85:73:61:b9:d5:25:
         5e:18:f6:22:37:71:b5:0d:70:a5:e5:03:6a:79:73:27:25:ad:
         c1:85:0a:ed:56:46:25:c3:80:b2:4f:4e:0c:25:b5:bc:32:ec:
         a2:cf:2b:90:12:98:8a:b6:a5:aa:31:f9:c9:84:b6:e2:e3:de:
         2d:70:a3:96:74:1c:96:c7:1b:59:15:b8:97:51:69:7a:4b:85:
         dd:2a:a5:ae:51:5d:2d:77
-----BEGIN CERTIFICATE-----
MIIE8zCCAtugAwIBAgIBATANBgkqhkiG9w0BAQsFADCBhjELMAkGA1UEBhMCQkgx
DDAKBgNVBAgMA0JpSDETMBEGA1UEBwwKQmFuamEgTHVrYTEOMAwGA1UECgwFRVRG
QkwxDjAMBgNVBAsMBUVURkJMMQ4wDAYDVQQDDAVFVEZCTDEkMCIGCSqGSIb3DQEJ
ARYVcGFsYXZlc3RyYUNBQG1haWwuY29tMB4XDTIwMDgwODE3MzAzMFoXDTIxMDgw
ODE3MzAzMFowdjELMAkGA1UEBhMCQkgxDDAKBgNVBAgMA0JpSDEOMAwGA1UECgwF
RVRGQkwxDjAMBgNVBAsMBUVURkJMMQ4wDAYDVQQDDAVFVEZCTDEpMCcGCSqGSIb3
DQEJARYaZGpvcmRqZXBhbGF2ZXN0cmFAbWFpbC5jb20wggEiMA0GCSqGSIb3DQEB
AQUAA4IBDwAwggEKAoIBAQDWjDAKjHqrD3bN0wKLmy2QHDNhkQ7BMi5vpwAJDg30
msR3PqrN1PuaV6aEUV4cWR/v9G7tB5VZIe8h7jL900qDZWJmK1jmL7rbt2J1+dxa
DR5p4wAzEvNFBeYyYN56tdou9G7yhXuP0z6KSDEYbCGcTENcVAfmWdBci3PvLa15
QwpW7VA9eVc0ZY/GXac9Q5yEI/6eho4yfx9Nga6m3Yhht3p+AlFKqQT3dI7LzHRj
z38yLSV3fsFCcI5BgwwHKIPL/Tr+RjUlqArh3YopfwknMn7sU1n5OJfSh7mdT693
i6B7mZbXjCFt91Nk7ZW5BiwNSEk3vk1XSeQ/csJRRFmZAgMBAAGjezB5MAkGA1Ud
EwQCMAAwLAYJYIZIAYb4QgENBB8WHU9wZW5TU0wgR2VuZXJhdGVkIENlcnRpZmlj
YXRlMB0GA1UdDgQWBBSsZeh/KqxNYLfn44IxbDDpsX9fbjAfBgNVHSMEGDAWgBSL
QxjsHCzlBmeWucoECIePsteMdDANBgkqhkiG9w0BAQsFAAOCAgEAfL9g7IDZenKQ
IKoW+L45GxdAcKAicbbLuFpMUahRgBjlZb8yeyq7azCpUz/pST6ZFN1lyjKPYVUA
Ox+7qQ5xyeZE6EFbfrqZcJRKpmKZdkYQuIgkNRUM1X/c+yCK3kfw5kSGT44iB4XO
uA2lLhot4ReTxERAPLtUDVG2keSm1J6Do3iHhfMSfJYzmM28lqHCg3ObJxiECtWS
ep871rsfZT7j77CcRvKpdDqzVZaRGTe6n+aPQ+sYEYdDni4XhC8YvJbf9s39QYsC
VEwIjxwtnbQ+xJo0ilDkPo5ubMy1fXazgcUCWUMWYG1Hcv95Fz3BRRzyU/r0Gbhs
tBRXBacH9xq7j4/1SQaaKk5xI9VDppLhiQejYqtzeUbPlROrIzPcknqIAjpZQx8I
Jvz6XXXRpmcV3rJNu0NUrsOOqnQ+gm6i09GH9UtUDmPZiM8GVfEykRqRBJPhcobJ
GNFtOSz2FpbuuMmUxkQGFuDjGeWvIl/rVg+sl0RH+T1HeXjJLOhp+y0E6e9QFCvx
obOWn0O+nTeQsyW0hXSv65ZBarV8dqPxXPyFDJWWElcGhXNhudUlXhj2IjdxtQ1w
peUDanlzJyWtwYUK7VZGJcOAsk9ODCW1vDLsos8rkBKYiralqjH5yYS24uPeLXCj
lnQclscbWRW4l1FpekuF3SqlrlFdLXc=
-----END CERTIFICATE-----
